; Function Attrs: nounwind uwtable
define void @dt_bauhaus_slider_set_factor(ptr noundef %0, float noundef %1) local_unnamed_addr #0 {
  %3 = load atomic i64, ptr @dt_bh_get_type.static_g_define_type_id seq_cst, align 8
  %.not.i.i = icmp eq i64 %3, 0
  br i1 %.not.i.i, label %4, label %DT_BAUHAUS_WIDGET.exit

4:                                                ; preds = %2
  %5 = tail call i32 @g_once_init_enter(ptr noundef nonnull @dt_bh_get_type.static_g_define_type_id) #19
  %.not4.i.i = icmp eq i32 %5, 0
  br i1 %.not4.i.i, label %DT_BAUHAUS_WIDGET.exit, label %6

6:                                                ; preds = %4
  %7 = tail call fastcc i64 @dt_bh_get_type_once()
  tail call void @g_once_init_leave(ptr noundef nonnull @dt_bh_get_type.static_g_define_type_id, i64 noundef %7) #19
  br label %DT_BAUHAUS_WIDGET.exit

DT_BAUHAUS_WIDGET.exit:                           ; preds = %2, %4, %6
  %8 = load i64, ptr @dt_bh_get_type.static_g_define_type_id, align 8, !tbaa !6
  %9 = tail call ptr @g_type_check_instance_cast(ptr noundef %0, i64 noundef %8) #19
  %10 = getelementptr inbounds nuw i8, ptr %9, i64 40
  %11 = load i32, ptr %10, align 8, !tbaa !105
  %.not = icmp eq i32 %11, 1
  br i1 %.not, label %12, label %17

12:                                               ; preds = %DT_BAUHAUS_WIDGET.exit
  %13 = getelementptr inbounds nuw i8, ptr %9, i64 496
  store float %1, ptr %13, align 8, !tbaa !122
  %14 = fcmp reassoc nsz arcp contract afn olt float %1, 0.000000e+00
  br i1 %14, label %15, label %17

15:                                               ; preds = %12
  %16 = getelementptr inbounds nuw i8, ptr %9, i64 512
  store ptr @_reverse_linear_curve, ptr %16, align 8, !tbaa !142
  br label %17

17:                                               ; preds = %12, %15, %DT_BAUHAUS_WIDGET.exit
  ret void
}